target datalayout = "e-m:e-p270:32:32-p271:32:32-p272:64:64-i64:64-i128:128-f80:128-n8:16:32:64-S128"
target triple = "x86_64-pc-linux-gnu"

%struct.SingleChannelElement = type { %struct.IndividualChannelStream, %struct.TemporalNoiseShaping, %struct.Pulse, [128 x i32], [128 x i32], [128 x i32], [128 x i8], [128 x i8], [128 x float], [128 x float], [4 x i8], [1024 x float], [1024 x float], [2048 x float], [672 x %struct.PredictorState] }
%struct.IndividualChannelStream = type { i8, [2 x i32], [2 x i8], [8 x i8], ptr, ptr, i32, i32, i32, [8 x i8], float }
%struct.TemporalNoiseShaping = type { i32, [8 x i32], [8 x [4 x i32]], [8 x [4 x i32]], [8 x [4 x i32]], [8 x [4 x [20 x i32]]], [8 x [4 x [20 x float]]] }
%struct.Pulse = type { i32, i32, [4 x i32], [4 x i32] }
%struct.PredictorState = type { float, float, float, float, float, float, float, float }
%struct.AVFloatDSPContext = type { ptr, ptr, ptr, ptr, ptr, ptr, ptr, ptr, ptr, ptr, ptr, ptr }

@ff_aac_kbd_long_1024 = external global [1024 x float], align 16
@ff_sine_1024 = external global [1024 x float], align 16

; Function Attrs: nounwind uwtable
define internal void @apply_only_long_window(ptr noundef %0, ptr noundef %1, ptr noundef %2) #0 {
  %4 = alloca ptr, align 8
  %5 = alloca ptr, align 8
  %6 = alloca ptr, align 8
  %7 = alloca ptr, align 8
  %8 = alloca ptr, align 8
  %9 = alloca ptr, align 8
  store ptr %0, ptr %4, align 8, !tbaa !237
  store ptr %1, ptr %5, align 8, !tbaa !103
  store ptr %2, ptr %6, align 8, !tbaa !108
  call void @llvm.lifetime.start.p0(i64 8, ptr %7) #11
  %10 = load ptr, ptr %5, align 8, !tbaa !103
  %11 = getelementptr inbounds nuw %struct.SingleChannelElement, ptr %10, i32 0, i32 0
  %12 = getelementptr inbounds nuw %struct.IndividualChannelStream, ptr %11, i32 0, i32 2
  %13 = getelementptr inbounds [2 x i8], ptr %12, i64 0, i64 0
  %14 = load i8, ptr %13, align 4, !tbaa !69
  %15 = zext i8 %14 to i32
  %16 = icmp ne i32 %15, 0
  %17 = select i1 %16, ptr @ff_aac_kbd_long_1024, ptr @ff_sine_1024
  store ptr %17, ptr %7, align 8, !tbaa !108
  call void @llvm.lifetime.start.p0(i64 8, ptr %8) #11
  %18 = load ptr, ptr %5, align 8, !tbaa !103
  %19 = getelementptr inbounds nuw %struct.SingleChannelElement, ptr %18, i32 0, i32 0
  %20 = getelementptr inbounds nuw %struct.IndividualChannelStream, ptr %19, i32 0, i32 2
  %21 = getelementptr inbounds [2 x i8], ptr %20, i64 0, i64 1
  %22 = load i8, ptr %21, align 1, !tbaa !69
  %23 = zext i8 %22 to i32
  %24 = icmp ne i32 %23, 0
  %25 = select i1 %24, ptr @ff_aac_kbd_long_1024, ptr @ff_sine_1024
  store ptr %25, ptr %8, align 8, !tbaa !108
  call void @llvm.lifetime.start.p0(i64 8, ptr %9) #11
  %26 = load ptr, ptr %5, align 8, !tbaa !103
  %27 = getelementptr inbounds nuw %struct.SingleChannelElement, ptr %26, i32 0, i32 13
  %28 = getelementptr inbounds [2048 x float], ptr %27, i64 0, i64 0
  store ptr %28, ptr %9, align 8, !tbaa !108
  %29 = load ptr, ptr %4, align 8, !tbaa !237
  %30 = getelementptr inbounds nuw %struct.AVFloatDSPContext, ptr %29, i32 0, i32 0
  %31 = load ptr, ptr %30, align 8, !tbaa !238
  %32 = load ptr, ptr %9, align 8, !tbaa !108
  %33 = load ptr, ptr %6, align 8, !tbaa !108
  %34 = load ptr, ptr %7, align 8, !tbaa !108
  call void %31(ptr noundef %32, ptr noundef %33, ptr noundef %34, i32 noundef 1024)
  %35 = load ptr, ptr %4, align 8, !tbaa !237
  %36 = getelementptr inbounds nuw %struct.AVFloatDSPContext, ptr %35, i32 0, i32 7
  %37 = load ptr, ptr %36, align 8, !tbaa !240
  %38 = load ptr, ptr %9, align 8, !tbaa !108
  %39 = getelementptr inbounds float, ptr %38, i64 1024
  %40 = load ptr, ptr %6, align 8, !tbaa !108
  %41 = getelementptr inbounds float, ptr %40, i64 1024
  %42 = load ptr, ptr %8, align 8, !tbaa !108
  call void %37(ptr noundef %39, ptr noundef %41, ptr noundef %42, i32 noundef 1024)
  call void @llvm.lifetime.end.p0(i64 8, ptr %9) #11
  call void @llvm.lifetime.end.p0(i64 8, ptr %8) #11
  call void @llvm.lifetime.end.p0(i64 8, ptr %7) #11
  ret void
}