; Function Attrs: nounwind uwtable
define internal void @apply_only_long_window(ptr noundef readonly captures(none) %0, ptr noundef %1, ptr noundef %2) #3 {
  %4 = getelementptr inbounds nuw i8, ptr %1, i64 12
  %5 = load i8, ptr %4, align 4, !tbaa !66
  %.not = icmp eq i8 %5, 0
  %6 = select i1 %.not, ptr @ff_sine_1024, ptr @ff_aac_kbd_long_1024
  %7 = getelementptr inbounds nuw i8, ptr %1, i64 13
  %8 = load i8, ptr %7, align 1, !tbaa !66
  %.not11 = icmp eq i8 %8, 0
  %9 = select i1 %.not11, ptr @ff_sine_1024, ptr @ff_aac_kbd_long_1024
  %10 = getelementptr inbounds nuw i8, ptr %1, i64 16656
  %11 = load ptr, ptr %0, align 8, !tbaa !227
  tail call void %11(ptr noundef nonnull %10, ptr noundef %2, ptr noundef nonnull %6, i32 noundef 1024) #11
  %12 = getelementptr inbounds nuw i8, ptr %0, i64 56
  %13 = load ptr, ptr %12, align 8, !tbaa !229
  %14 = getelementptr inbounds nuw i8, ptr %1, i64 20752
  %15 = getelementptr inbounds nuw i8, ptr %2, i64 4096
  tail call void %13(ptr noundef nonnull %14, ptr noundef nonnull %15, ptr noundef nonnull %9, i32 noundef 1024) #11
  ret void
}